Certificate:
    Data:
        Version: 3 (0x2)
        Serial Number: 1 (0x1)
    Signature Algorithm: sha256WithRSAEncryption
        Issuer: C=AU, ST=Some-State, O=Internet Widgits Pty Ltd
        Validity
            Not Before: Jul 20 02:47:02 2018 GMT
            Not After : Jul 17 02:47:02 2028 GMT
        Subject: C=AU, ST=Some-State, O=Internet Widgits Pty Ltd, CN=hello.example.com
        Subject Public Key Info:
            Public Key Algorithm: rsaEncryption
                Public-Key: (2048 bit)
                Modulus:
                    00:ba:15:f2:e0:c0:0b:a1:2c:c9:93:f2:8f:e1:33:
                    f0:dc:a9:01:69:d7:25:f9:21:1d:df:37:41:ea:a5:
                    a4:bb:3f:ad:58:7b:3c:53:67:f9:99:b5:63:8b:9b:
                    af:d4:32:f5:d2:e2:b6:c7:de:55:09:d1:c2:59:f7:
                    b7:e8:c8:b3:83:09:fe:e1:f2:f1:be:b8:b2:6b:64:
                    35:c0:c5:9b:d1:db:3b:af:9d:94:ac:b0:56:82:90:
                    b0:00:8c:75:9c:79:0f:ae:e5:61:21:99:35:dc:c1:
                    6b:f5:7e:96:e6:5e:a8:d0:b1:d3:d8:05:8b:37:c4:
                    6f:b9:5e:d0:ff:b5:c1:e7:07:b2:2c:be:0b:b1:2c:
                    fa:8f:65:be:71:bb:16:6a:c7:2f:36:0a:de:db:5c:
                    fa:24:ff:58:e7:47:9d:08:f8:9b:59:b1:b8:6e:ab:
                    db:da:bf:5c:f3:49:43:70:6c:d3:0d:78:5f:1e:a2:
                    43:bf:c3:a3:ec:a6:00:9b:f7:c6:d0:f7:8b:3b:cf:
                    a5:cc:34:43:52:9a:f3:0e:c3:1e:a5:c6:6a:00:fd:
                    d9:c6:68:e2:f2:8e:bf:50:e1:88:eb:98:93:13:38:
                    85:d7:2a:46:c4:36:17:8f:99:02:58:20:79:67:0c:
                    d6:cd:30:a8:87:09:54:67:d7:4a:59:94:de:b8:5f:
                    44:9f
                Exponent: 65537 (0x10001)
        X509v3 extensions:
            X509v3 Basic Constraints: 
                CA:FALSE
            Netscape Comment: 
                OpenSSL Generated Certificate
            X509v3 Subject Key Identifier: 
                08:A4:EE:63:36:C0:06:47:96:9F:6F:B3:77:DA:B7:D2:71:A5:12:DC
            X509v3 Authority Key Identifier: 
                keyid:82:70:FD:56:59:44:33:98:84:D1:15:4F:DD:51:ED:E6:B6:D6:7E:C3

    Signature Algorithm: sha256WithRSAEncryption
         83:6b:19:f3:fe:22:ff:31:af:c6:8a:55:ac:81:a8:4d:97:de:
         b5:64:93:0a:7c:5d:1e:e5:02:3b:88:f1:c1:a3:b6:e4:38:95:
         a2:d2:e5:10:2b:61:4f:6c:e8:08:8d:a2:b2:98:00:36:e2:08:
         65:95:a3:80:61:bc:cb:1d:36:0e:43:d8:8e:79:44:9b:30:4b:
         65:0d:03:ae:7b:89:ea:9c:22:42:04:8a:cf:bb:55:2d:74:ce:
         03:b5:f4:dd:6b:95:9e:c8:78:c3:13:f5:12:83:02:fa:d9:a1:
         a3:99:91:9a:bb:5f:c7:df:8b:01:c3:26:cd:42:c7:63:73:20:
         56:ae:0e:84:80:cc:27:67:2f:a1:ce:f6:3b:fb:08:3d:e0:41:
         0b:b9:f5:5c:cb:80:23:aa:70:71:43:b8:f4:d3:c3:7c:b9:f4:
         fe:52:97:39:ef:cf:12:89:66:88:ad:42:f8:ae:fe:85:4d:50:
         e8:fa:58:f0:97:62:96:45:80:41:4e:79:ac:77:df:36:c7:d4:
         00:bf:08:a8:17:0e:46:66:23:41:74:bd:f6:15:1f:ce:ba:08:
         ee:3f:f3:91:97:6c:68:d8:27:0b:c4:8c:de:e8:08:f3:5c:a7:
         69:5a:51:bf:6a:e5:d6:b8:05:3e:81:fc:83:1b:47:d7:ec:0c:
         eb:d5:03:61
-----BEGIN CERTIFICATE-----
MIIDnDCCAoSgAwIBAgIBATANBgkqhkiG9w0BAQsFADBFMQswCQYDVQQGEwJBVTET
MBEGA1UECAwKU29tZS1TdGF0ZTEhMB8GA1UECgwYSW50ZXJuZXQgV2lkZ2l0cyBQ
dHkgTHRkMB4XDTE4MDcyMDAyNDcwMloXDTI4MDcxNzAyNDcwMlowYTELMAkGA1UE
BhMCQVUxEzARBgNVBAgMClNvbWUtU3RhdGUxITAfBgNVBAoMGEludGVybmV0IFdp
ZGdpdHMgUHR5IEx0ZDEaMBgGA1UEAwwRaGVsbG8uZXhhbXBsZS5jb20wggEiMA0G
CSqGSIb3DQEBAQUAA4IBDwAwggEKAoIBAQC6FfLgwAuhLMmT8o/hM/DcqQFp1yX5
IR3fN0HqpaS7P61YezxTZ/mZtWOLm6/UMvXS4rbH3lUJ0cJZ97foyLODCf7h8vG+
uLJrZDXAxZvR2zuvnZSssFaCkLAAjHWceQ+u5WEhmTXcwWv1fpbmXqjQsdPYBYs3
xG+5XtD/tcHnB7IsvguxLPqPZb5xuxZqxy82Ct7bXPok/1jnR50I+JtZsbhuq9va
v1zzSUNwbNMNeF8eokO/w6PspgCb98bQ94s7z6XMNENSmvMOwx6lxmoA/dnGaOLy
jr9Q4YjrmJMTOIXXKkbENhePmQJYIHlnDNbNMKiHCVRn10pZlN64X0SfAgMBAAGj
ezB5MAkGA1UdEwQCMAAwLAYJYIZIAYb4QgENBB8WHU9wZW5TU0wgR2VuZXJhdGVk
IENlcnRpZmljYXRlMB0GA1UdDgQWBBQIpO5jNsAGR5afb7N32rfScaUS3DAfBgNV
HSMEGDAWgBSCcP1WWUQzmITRFU/dUe3mttZ+wzANBgkqhkiG9w0BAQsFAAOCAQEA
g2sZ8/4i/zGvxopVrIGoTZfetWSTCnxdHuUCO4jxwaO25DiVotLlECthT2zoCI2i
spgANuIIZZWjgGG8yx02DkPYjnlEmzBLZQ0DrnuJ6pwiQgSKz7tVLXTOA7X03WuV
nsh4wxP1EoMC+tmho5mRmrtfx9+LAcMmzULHY3MgVq4OhIDMJ2cvoc72O/sIPeBB
C7n1XMuAI6pwcUO49NPDfLn0/lKXOe/PEolmiK1C+K7+hU1Q6PpY8JdilkWAQU55
rHffNsfUAL8IqBcORmYjQXS99hUfzroI7j/zkZdsaNgnC8SM3ugI81ynaVpRv2rl
1rgFPoH8gxtH1+wM69UDYQ==
-----END CERTIFICATE-----
